target datalayout = "e-m:e-p270:32:32-p271:32:32-p272:64:64-i64:64-i128:128-f80:128-n8:16:32:64-S128"
target triple = "x86_64-pc-linux-gnu"

%struct.pmix_class_t = type { ptr, ptr, ptr, ptr, i32, i32, ptr, ptr, i64 }
%struct.pmix_list_t = type { %struct.pmix_object_t, %struct.pmix_list_item_t, i64 }
%struct.pmix_object_t = type { %union.pthread_mutex_t, ptr, i32, %struct.pmix_tma }
%union.pthread_mutex_t = type { %struct.__pthread_mutex_s }
%struct.__pthread_mutex_s = type { i32, i32, i32, i32, i32, i16, i16, %struct.__pthread_internal_list }
%struct.__pthread_internal_list = type { ptr, ptr }
%struct.pmix_tma = type { ptr, ptr, ptr, ptr, ptr, ptr, ptr, ptr }
%struct.pmix_list_item_t = type { %struct.pmix_object_t, ptr, ptr, i32 }
%struct.pmix_attribute_trk_t = type { %struct.pmix_list_item_t, ptr, ptr }

@pmix_class_init_epoch = external global i32, align 4
@client_attrs = internal global %struct.pmix_list_t zeroinitializer, align 8
@server_attrs = internal global %struct.pmix_list_t zeroinitializer, align 8
@host_attrs = internal global %struct.pmix_list_t zeroinitializer, align 8
@tool_attrs = internal global %struct.pmix_list_t zeroinitializer, align 8
@.str = private unnamed_addr constant [16 x i8] c"pmix.host.attrs\00", align 1
@.str.1 = private unnamed_addr constant [18 x i8] c"pmix.client.attrs\00", align 1
@.str.2 = private unnamed_addr constant [16 x i8] c"pmix.srvr.attrs\00", align 1
@.str.3 = private unnamed_addr constant [16 x i8] c"pmix.tool.attrs\00", align 1
@pmix_attribute_trk_t_class = internal global %struct.pmix_class_t { ptr @.str.29, ptr @pmix_list_item_t_class, ptr @atrkcon, ptr @atrkdes, i32 0, i32 0, ptr null, ptr null, i64 160 }, align 8

; Function Attrs: inlinehint nounwind uwtable
define internal void @pmix_obj_run_constructors(ptr noundef %0) #3 {
  %2 = alloca ptr, align 8
  %3 = alloca ptr, align 8
  store ptr %0, ptr %2, align 8, !tbaa !53
  call void @llvm.lifetime.start.p0(i64 8, ptr %3) #13
  %4 = load ptr, ptr %2, align 8, !tbaa !53
  %5 = getelementptr inbounds nuw %struct.pmix_object_t, ptr %4, i32 0, i32 1
  %6 = load ptr, ptr %5, align 8, !tbaa !17
  %7 = getelementptr inbounds nuw %struct.pmix_class_t, ptr %6, i32 0, i32 6
  %8 = load ptr, ptr %7, align 8, !tbaa !66
  store ptr %8, ptr %3, align 8, !tbaa !42
  br label %9

9:                                                ; preds = %13, %1
  %10 = load ptr, ptr %3, align 8, !tbaa !42
  %11 = load ptr, ptr %10, align 8, !tbaa !42
  %12 = icmp ne ptr null, %11
  br i1 %12, label %13, label %19

13:                                               ; preds = %9
  %14 = load ptr, ptr %3, align 8, !tbaa !42
  %15 = load ptr, ptr %14, align 8, !tbaa !42
  %16 = load ptr, ptr %2, align 8, !tbaa !53
  call void %15(ptr noundef %16)
  %17 = load ptr, ptr %3, align 8, !tbaa !42
  %18 = getelementptr inbounds nuw ptr, ptr %17, i32 1
  store ptr %18, ptr %3, align 8, !tbaa !42
  br label %9, !llvm.loop !67

19:                                               ; preds = %9
  call void @llvm.lifetime.end.p0(i64 8, ptr %3) #13
  ret void
}

; Function Attrs: inlinehint nounwind uwtable
define internal ptr @pmix_tma_malloc(ptr noundef %0, i64 noundef %1) #3 {
  %3 = alloca ptr, align 8
  %4 = alloca ptr, align 8
  %5 = alloca i64, align 8
  store ptr %0, ptr %4, align 8, !tbaa !55
  store i64 %1, ptr %5, align 8, !tbaa !41
  %6 = load ptr, ptr %4, align 8, !tbaa !55
  %7 = icmp ne ptr null, %6
  br i1 %7, label %8, label %15

8:                                                ; preds = %2
  %9 = load ptr, ptr %4, align 8, !tbaa !55
  %10 = getelementptr inbounds nuw %struct.pmix_tma, ptr %9, i32 0, i32 0
  %11 = load ptr, ptr %10, align 8, !tbaa !216
  %12 = load ptr, ptr %4, align 8, !tbaa !55
  %13 = load i64, ptr %5, align 8, !tbaa !41
  %14 = call ptr %11(ptr noundef %12, i64 noundef %13)
  store ptr %14, ptr %3, align 8
  br label %18

15:                                               ; preds = %2
  %16 = load i64, ptr %5, align 8, !tbaa !41
  %17 = call noalias ptr @malloc(i64 noundef %16) #14
  store ptr %17, ptr %3, align 8
  br label %18

18:                                               ; preds = %15, %8
  %19 = load ptr, ptr %3, align 8
  ret ptr %19
}

; Function Attrs: inlinehint nounwind uwtable
define internal void @_pmix_list_append(ptr noundef %0, ptr noundef %1) #3 {
  %3 = alloca ptr, align 8
  %4 = alloca ptr, align 8
  %5 = alloca ptr, align 8
  store ptr %0, ptr %3, align 8, !tbaa !77
  store ptr %1, ptr %4, align 8, !tbaa !85
  call void @llvm.lifetime.start.p0(i64 8, ptr %5) #13
  %6 = load ptr, ptr %3, align 8, !tbaa !77
  %7 = getelementptr inbounds nuw %struct.pmix_list_t, ptr %6, i32 0, i32 1
  store ptr %7, ptr %5, align 8, !tbaa !85
  %8 = load ptr, ptr %5, align 8, !tbaa !85
  %9 = getelementptr inbounds nuw %struct.pmix_list_item_t, ptr %8, i32 0, i32 2
  %10 = load ptr, ptr %9, align 8, !tbaa !91
  %11 = load ptr, ptr %4, align 8, !tbaa !85
  %12 = getelementptr inbounds nuw %struct.pmix_list_item_t, ptr %11, i32 0, i32 2
  store ptr %10, ptr %12, align 8, !tbaa !91
  %13 = load ptr, ptr %4, align 8, !tbaa !85
  %14 = load ptr, ptr %5, align 8, !tbaa !85
  %15 = getelementptr inbounds nuw %struct.pmix_list_item_t, ptr %14, i32 0, i32 2
  %16 = load ptr, ptr %15, align 8, !tbaa !91
  %17 = getelementptr inbounds nuw %struct.pmix_list_item_t, ptr %16, i32 0, i32 1
  store volatile ptr %13, ptr %17, align 8, !tbaa !82
  %18 = load ptr, ptr %5, align 8, !tbaa !85
  %19 = load ptr, ptr %4, align 8, !tbaa !85
  %20 = getelementptr inbounds nuw %struct.pmix_list_item_t, ptr %19, i32 0, i32 1
  store ptr %18, ptr %20, align 8, !tbaa !82
  %21 = load ptr, ptr %4, align 8, !tbaa !85
  %22 = load ptr, ptr %5, align 8, !tbaa !85
  %23 = getelementptr inbounds nuw %struct.pmix_list_item_t, ptr %22, i32 0, i32 2
  store ptr %21, ptr %23, align 8, !tbaa !91
  %24 = load ptr, ptr %3, align 8, !tbaa !77
  %25 = getelementptr inbounds nuw %struct.pmix_list_t, ptr %24, i32 0, i32 2
  %26 = load volatile i64, ptr %25, align 8, !tbaa !90
  %27 = add i64 %26, 1
  store volatile i64 %27, ptr %25, align 8, !tbaa !90
  call void @llvm.lifetime.end.p0(i64 8, ptr %5) #13
  ret void
}

; Function Attrs: inlinehint nounwind uwtable
define internal ptr @pmix_obj_new_tma(ptr noundef %0, ptr noundef %1) #3 {
  %3 = alloca ptr, align 8
  %4 = alloca ptr, align 8
  %5 = alloca ptr, align 8
  store ptr %0, ptr %3, align 8, !tbaa !187
  store ptr %1, ptr %4, align 8, !tbaa !55
  call void @llvm.lifetime.start.p0(i64 8, ptr %5) #13
  %6 = load ptr, ptr %4, align 8, !tbaa !55
  %7 = load ptr, ptr %3, align 8, !tbaa !187
  %8 = getelementptr inbounds nuw %struct.pmix_class_t, ptr %7, i32 0, i32 8
  %9 = load i64, ptr %8, align 8, !tbaa !188
  %10 = call ptr @pmix_tma_malloc(ptr noundef %6, i64 noundef %9)
  store ptr %10, ptr %5, align 8, !tbaa !53
  %11 = load i32, ptr @pmix_class_init_epoch, align 4, !tbaa !9
  %12 = load ptr, ptr %3, align 8, !tbaa !187
  %13 = getelementptr inbounds nuw %struct.pmix_class_t, ptr %12, i32 0, i32 4
  %14 = load i32, ptr %13, align 8, !tbaa !11
  %15 = icmp ne i32 %11, %14
  br i1 %15, label %16, label %18

16:                                               ; preds = %2
  %17 = load ptr, ptr %3, align 8, !tbaa !187
  call void @pmix_class_initialize(ptr noundef %17)
  br label %18

18:                                               ; preds = %16, %2
  %19 = load ptr, ptr %5, align 8, !tbaa !53
  %20 = icmp ne ptr null, %19
  br i1 %20, label %21, label %60

21:                                               ; preds = %18
  %22 = load ptr, ptr %5, align 8, !tbaa !53
  %23 = getelementptr inbounds nuw %struct.pmix_object_t, ptr %22, i32 0, i32 0
  %24 = call i32 @pthread_mutex_init(ptr noundef %23, ptr noundef null) #13
  %25 = load ptr, ptr %3, align 8, !tbaa !187
  %26 = load ptr, ptr %5, align 8, !tbaa !53
  %27 = getelementptr inbounds nuw %struct.pmix_object_t, ptr %26, i32 0, i32 1
  store ptr %25, ptr %27, align 8, !tbaa !17
  %28 = load ptr, ptr %5, align 8, !tbaa !53
  %29 = getelementptr inbounds nuw %struct.pmix_object_t, ptr %28, i32 0, i32 2
  store i32 1, ptr %29, align 8, !tbaa !20
  %30 = load ptr, ptr %4, align 8, !tbaa !55
  %31 = icmp eq ptr null, %30
  br i1 %31, label %32, label %54

32:                                               ; preds = %21
  %33 = load ptr, ptr %5, align 8, !tbaa !53
  %34 = getelementptr inbounds nuw %struct.pmix_object_t, ptr %33, i32 0, i32 3
  %35 = getelementptr inbounds nuw %struct.pmix_tma, ptr %34, i32 0, i32 0
  store ptr null, ptr %35, align 8, !tbaa !57
  %36 = load ptr, ptr %5, align 8, !tbaa !53
  %37 = getelementptr inbounds nuw %struct.pmix_object_t, ptr %36, i32 0, i32 3
  %38 = getelementptr inbounds nuw %struct.pmix_tma, ptr %37, i32 0, i32 1
  store ptr null, ptr %38, align 8, !tbaa !58
  %39 = load ptr, ptr %5, align 8, !tbaa !53
  %40 = getelementptr inbounds nuw %struct.pmix_object_t, ptr %39, i32 0, i32 3
  %41 = getelementptr inbounds nuw %struct.pmix_tma, ptr %40, i32 0, i32 2
  store ptr null, ptr %41, align 8, !tbaa !59
  %42 = load ptr, ptr %5, align 8, !tbaa !53
  %43 = getelementptr inbounds nuw %struct.pmix_object_t, ptr %42, i32 0, i32 3
  %44 = getelementptr inbounds nuw %struct.pmix_tma, ptr %43, i32 0, i32 3
  store ptr null, ptr %44, align 8, !tbaa !60
  %45 = load ptr, ptr %5, align 8, !tbaa !53
  %46 = getelementptr inbounds nuw %struct.pmix_object_t, ptr %45, i32 0, i32 3
  %47 = getelementptr inbounds nuw %struct.pmix_tma, ptr %46, i32 0, i32 5
  store ptr null, ptr %47, align 8, !tbaa !62
  %48 = load ptr, ptr %5, align 8, !tbaa !53
  %49 = getelementptr inbounds nuw %struct.pmix_object_t, ptr %48, i32 0, i32 3
  %50 = getelementptr inbounds nuw %struct.pmix_tma, ptr %49, i32 0, i32 6
  store ptr null, ptr %50, align 8, !tbaa !63
  %51 = load ptr, ptr %5, align 8, !tbaa !53
  %52 = getelementptr inbounds nuw %struct.pmix_object_t, ptr %51, i32 0, i32 3
  %53 = getelementptr inbounds nuw %struct.pmix_tma, ptr %52, i32 0, i32 7
  store ptr null, ptr %53, align 8, !tbaa !64
  br label %58

54:                                               ; preds = %21
  %55 = load ptr, ptr %5, align 8, !tbaa !53
  %56 = getelementptr inbounds nuw %struct.pmix_object_t, ptr %55, i32 0, i32 3
  %57 = load ptr, ptr %4, align 8, !tbaa !55
  call void @llvm.memcpy.p0.p0.i64(ptr align 8 %56, ptr align 8 %57, i64 64, i1 false), !tbaa.struct !65
  br label %58

58:                                               ; preds = %54, %32
  %59 = load ptr, ptr %5, align 8, !tbaa !53
  call void @pmix_obj_run_constructors(ptr noundef %59)
  br label %60

60:                                               ; preds = %58, %18
  %61 = load ptr, ptr %5, align 8, !tbaa !53
  call void @llvm.lifetime.end.p0(i64 8, ptr %5) #13
  ret ptr %61
}

; Function Attrs: nounwind uwtable
define internal i32 @process_reg(ptr noundef %0, ptr noundef %1, ptr noundef %2) #0 {
  %4 = alloca i32, align 4
  %5 = alloca ptr, align 8
  %6 = alloca ptr, align 8
  %7 = alloca ptr, align 8
  %8 = alloca ptr, align 8
  %9 = alloca ptr, align 8
  %10 = alloca i32, align 4
  store ptr %0, ptr %5, align 8, !tbaa !68
  store ptr %1, ptr %6, align 8, !tbaa !68
  store ptr %2, ptr %7, align 8, !tbaa !69
  call void @llvm.lifetime.start.p0(i64 8, ptr %8) #13
  call void @llvm.lifetime.start.p0(i64 8, ptr %9) #13
  %11 = load ptr, ptr %5, align 8, !tbaa !68
  %12 = call i32 @strcmp(ptr noundef %11, ptr noundef @.str.1) #15
  %13 = icmp eq i32 0, %12
  br i1 %13, label %14, label %15

14:                                               ; preds = %3
  store ptr @client_attrs, ptr %9, align 8, !tbaa !77
  br label %34

15:                                               ; preds = %3
  %16 = load ptr, ptr %5, align 8, !tbaa !68
  %17 = call i32 @strcmp(ptr noundef %16, ptr noundef @.str.2) #15
  %18 = icmp eq i32 0, %17
  br i1 %18, label %19, label %20

19:                                               ; preds = %15
  store ptr @server_attrs, ptr %9, align 8, !tbaa !77
  br label %33

20:                                               ; preds = %15
  %21 = load ptr, ptr %5, align 8, !tbaa !68
  %22 = call i32 @strcmp(ptr noundef %21, ptr noundef @.str) #15
  %23 = icmp eq i32 0, %22
  br i1 %23, label %24, label %25

24:                                               ; preds = %20
  store ptr @host_attrs, ptr %9, align 8, !tbaa !77
  br label %32

25:                                               ; preds = %20
  %26 = load ptr, ptr %5, align 8, !tbaa !68
  %27 = call i32 @strcmp(ptr noundef %26, ptr noundef @.str.3) #15
  %28 = icmp eq i32 0, %27
  br i1 %28, label %29, label %30

29:                                               ; preds = %25
  store ptr @tool_attrs, ptr %9, align 8, !tbaa !77
  br label %31

30:                                               ; preds = %25
  store i32 -27, ptr %4, align 4
  store i32 1, ptr %10, align 4
  br label %74

31:                                               ; preds = %29
  br label %32

32:                                               ; preds = %31, %24
  br label %33

33:                                               ; preds = %32, %19
  br label %34

34:                                               ; preds = %33, %14
  %35 = load ptr, ptr %9, align 8, !tbaa !77
  %36 = getelementptr inbounds nuw %struct.pmix_list_t, ptr %35, i32 0, i32 1
  %37 = getelementptr inbounds nuw %struct.pmix_list_item_t, ptr %36, i32 0, i32 1
  %38 = load ptr, ptr %37, align 8, !tbaa !79
  store ptr %38, ptr %8, align 8, !tbaa !42
  br label %39

39:                                               ; preds = %53, %34
  %40 = load ptr, ptr %8, align 8, !tbaa !42
  %41 = load ptr, ptr %9, align 8, !tbaa !77
  %42 = getelementptr inbounds nuw %struct.pmix_list_t, ptr %41, i32 0, i32 1
  %43 = icmp ne ptr %40, %42
  br i1 %43, label %44, label %57

44:                                               ; preds = %39
  %45 = load ptr, ptr %6, align 8, !tbaa !68
  %46 = load ptr, ptr %8, align 8, !tbaa !42
  %47 = getelementptr inbounds nuw %struct.pmix_attribute_trk_t, ptr %46, i32 0, i32 1
  %48 = load ptr, ptr %47, align 8, !tbaa !80
  %49 = call i32 @strcmp(ptr noundef %45, ptr noundef %48) #15
  %50 = icmp eq i32 0, %49
  br i1 %50, label %51, label %52

51:                                               ; preds = %44
  store i32 -171, ptr %4, align 4
  store i32 1, ptr %10, align 4
  br label %74

52:                                               ; preds = %44
  br label %53

53:                                               ; preds = %52
  %54 = load ptr, ptr %8, align 8, !tbaa !42
  %55 = getelementptr inbounds nuw %struct.pmix_list_item_t, ptr %54, i32 0, i32 1
  %56 = load ptr, ptr %55, align 8, !tbaa !82
  store ptr %56, ptr %8, align 8, !tbaa !42
  br label %39, !llvm.loop !83

57:                                               ; preds = %39
  %58 = call ptr @pmix_obj_new_tma(ptr noundef @pmix_attribute_trk_t_class, ptr noundef null)
  store ptr %58, ptr %8, align 8, !tbaa !42
  %59 = load ptr, ptr %9, align 8, !tbaa !77
  %60 = load ptr, ptr %8, align 8, !tbaa !42
  %61 = getelementptr inbounds nuw %struct.pmix_attribute_trk_t, ptr %60, i32 0, i32 0
  call void @_pmix_list_append(ptr noundef %59, ptr noundef %61)
  %62 = load ptr, ptr %6, align 8, !tbaa !68
  %63 = call noalias ptr @strdup(ptr noundef %62) #13
  %64 = load ptr, ptr %8, align 8, !tbaa !42
  %65 = getelementptr inbounds nuw %struct.pmix_attribute_trk_t, ptr %64, i32 0, i32 1
  store ptr %63, ptr %65, align 8, !tbaa !80
  %66 = load ptr, ptr %7, align 8, !tbaa !69
  %67 = icmp ne ptr null, %66
  br i1 %67, label %68, label %73

68:                                               ; preds = %57
  %69 = load ptr, ptr %7, align 8, !tbaa !69
  %70 = call ptr @PMIx_Argv_copy(ptr noundef %69)
  %71 = load ptr, ptr %8, align 8, !tbaa !42
  %72 = getelementptr inbounds nuw %struct.pmix_attribute_trk_t, ptr %71, i32 0, i32 2
  store ptr %70, ptr %72, align 8, !tbaa !84
  br label %73

73:                                               ; preds = %68, %57
  store i32 0, ptr %4, align 4
  store i32 1, ptr %10, align 4
  br label %74

74:                                               ; preds = %73, %51, %30
  call void @llvm.lifetime.end.p0(i64 8, ptr %9) #13
  call void @llvm.lifetime.end.p0(i64 8, ptr %8) #13
  %75 = load i32, ptr %4, align 4
  ret i32 %75
}