; Function Attrs: nounwind uwtable
define internal fastcc range(i32 -171, 1) i32 @process_reg(ptr noundef readonly captures(none) %0, ptr noundef readonly captures(none) %1, ptr noundef %2) unnamed_addr #0 {
  %4 = tail call i32 @strcmp(ptr noundef nonnull dereferenceable(1) %0, ptr noundef nonnull dereferenceable(18) @.str.1) #20
  %5 = icmp eq i32 %4, 0
  br i1 %5, label %15, label %6

6:                                                ; preds = %3
  %7 = tail call i32 @strcmp(ptr noundef nonnull dereferenceable(1) %0, ptr noundef nonnull dereferenceable(16) @.str.2) #20
  %8 = icmp eq i32 %7, 0
  br i1 %8, label %15, label %9

9:                                                ; preds = %6
  %10 = tail call i32 @strcmp(ptr noundef nonnull dereferenceable(1) %0, ptr noundef nonnull dereferenceable(16) @.str) #20
  %11 = icmp eq i32 %10, 0
  br i1 %11, label %15, label %12

12:                                               ; preds = %9
  %13 = tail call i32 @strcmp(ptr noundef nonnull dereferenceable(1) %0, ptr noundef nonnull dereferenceable(16) @.str.3) #20
  %14 = icmp eq i32 %13, 0
  br i1 %14, label %15, label %.loopexit

15:                                               ; preds = %12, %9, %6, %3
  %.0 = phi ptr [ @client_attrs, %3 ], [ @server_attrs, %6 ], [ @host_attrs, %9 ], [ @tool_attrs, %12 ]
  %16 = getelementptr inbounds nuw i8, ptr %.0, i64 120
  %17 = getelementptr inbounds nuw i8, ptr %.0, i64 240
  %.01721 = load ptr, ptr %17, align 8, !tbaa !58
  %.not22 = icmp eq ptr %.01721, %16
  br i1 %.not22, label %._crit_edge, label %.lr.ph

18:                                               ; preds = %.lr.ph
  %19 = getelementptr inbounds nuw i8, ptr %.01723, i64 120
  %.017 = load ptr, ptr %19, align 8, !tbaa !58
  %.not = icmp eq ptr %.017, %16
  br i1 %.not, label %._crit_edge, label %.lr.ph, !llvm.loop !59

.lr.ph:                                           ; preds = %15, %18
  %.01723 = phi ptr [ %.017, %18 ], [ %.01721, %15 ]
  %20 = getelementptr inbounds nuw i8, ptr %.01723, i64 144
  %21 = load ptr, ptr %20, align 8, !tbaa !60
  %22 = tail call i32 @strcmp(ptr noundef nonnull dereferenceable(1) %1, ptr noundef nonnull dereferenceable(1) %21) #20
  %23 = icmp eq i32 %22, 0
  br i1 %23, label %.loopexit, label %18

._crit_edge:                                      ; preds = %18, %15
  %24 = load i64, ptr getelementptr inbounds nuw (i8, ptr @pmix_attribute_trk_t_class, i64 56), align 8, !tbaa !62
  %25 = tail call noalias noundef ptr @malloc(i64 noundef %24) #19
  %26 = load i32, ptr @pmix_class_init_epoch, align 4, !tbaa !3
  %27 = load i32, ptr getelementptr inbounds nuw (i8, ptr @pmix_attribute_trk_t_class, i64 32), align 8, !tbaa !7
  %.not.i = icmp eq i32 %26, %27
  br i1 %.not.i, label %29, label %28

28:                                               ; preds = %._crit_edge
  tail call void @pmix_class_initialize(ptr noundef nonnull @pmix_attribute_trk_t_class) #18
  br label %29

29:                                               ; preds = %28, %._crit_edge
  %.not22.i = icmp eq ptr %25, null
  br i1 %.not22.i, label %pmix_obj_new_tma.exit, label %30

30:                                               ; preds = %29
  %31 = tail call i32 @pthread_mutex_init(ptr noundef nonnull %25, ptr noundef null) #18
  %32 = getelementptr inbounds nuw i8, ptr %25, i64 40
  store ptr @pmix_attribute_trk_t_class, ptr %32, align 8, !tbaa !13
  %33 = getelementptr inbounds nuw i8, ptr %25, i64 48
  store i32 1, ptr %33, align 8, !tbaa !16
  %34 = getelementptr inbounds nuw i8, ptr %25, i64 56
  %35 = getelementptr inbounds nuw i8, ptr %25, i64 96
  tail call void @llvm.memset.p0.i64(ptr noundef nonnull align 8 dereferenceable(32) %34, i8 0, i64 32, i1 false)
  tail call void @llvm.memset.p0.i64(ptr noundef nonnull align 8 dereferenceable(24) %35, i8 0, i64 24, i1 false)
  %36 = load ptr, ptr getelementptr inbounds nuw (i8, ptr @pmix_attribute_trk_t_class, i64 40), align 8, !tbaa !17
  %37 = load ptr, ptr %36, align 8, !tbaa !18
  %.not6.i.i = icmp eq ptr %37, null
  br i1 %.not6.i.i, label %pmix_obj_new_tma.exit, label %.lr.ph.i.i

.lr.ph.i.i:                                       ; preds = %30, %.lr.ph.i.i
  %38 = phi ptr [ %40, %.lr.ph.i.i ], [ %37, %30 ]
  %.07.i.i = phi ptr [ %39, %.lr.ph.i.i ], [ %36, %30 ]
  tail call void %38(ptr noundef nonnull %25) #18
  %39 = getelementptr inbounds nuw i8, ptr %.07.i.i, i64 8
  %40 = load ptr, ptr %39, align 8, !tbaa !18
  %.not.i.i = icmp eq ptr %40, null
  br i1 %.not.i.i, label %pmix_obj_new_tma.exit, label %.lr.ph.i.i, !llvm.loop !19

pmix_obj_new_tma.exit:                            ; preds = %.lr.ph.i.i, %29, %30
  %41 = getelementptr inbounds nuw i8, ptr %.0, i64 248
  %42 = load ptr, ptr %41, align 8, !tbaa !63
  %43 = getelementptr inbounds nuw i8, ptr %25, i64 128
  store ptr %42, ptr %43, align 8, !tbaa !63
  %44 = getelementptr inbounds nuw i8, ptr %42, i64 120
  store volatile ptr %25, ptr %44, align 8, !tbaa !58
  %45 = getelementptr inbounds nuw i8, ptr %25, i64 120
  store ptr %16, ptr %45, align 8, !tbaa !58
  store ptr %25, ptr %41, align 8, !tbaa !63
  %46 = getelementptr inbounds nuw i8, ptr %.0, i64 264
  %47 = load volatile i64, ptr %46, align 8, !tbaa !64
  %48 = add i64 %47, 1
  store volatile i64 %48, ptr %46, align 8, !tbaa !64
  %49 = tail call noalias ptr @strdup(ptr noundef %1) #18
  %50 = getelementptr inbounds nuw i8, ptr %25, i64 144
  store ptr %49, ptr %50, align 8, !tbaa !60
  %.not20 = icmp eq ptr %2, null
  br i1 %.not20, label %.loopexit, label %51

51:                                               ; preds = %pmix_obj_new_tma.exit
  %52 = tail call ptr @PMIx_Argv_copy(ptr noundef nonnull %2) #18
  %53 = getelementptr inbounds nuw i8, ptr %25, i64 152
  store ptr %52, ptr %53, align 8, !tbaa !65
  br label %.loopexit

.loopexit:                                        ; preds = %.lr.ph, %pmix_obj_new_tma.exit, %51, %12
  %.018 = phi i32 [ -27, %12 ], [ 0, %51 ], [ 0, %pmix_obj_new_tma.exit ], [ -171, %.lr.ph ]
  ret i32 %.018
}